target datalayout = "e-m:e-p270:32:32-p271:32:32-p272:64:64-i64:64-i128:128-f80:128-n8:16:32:64-S128"
target triple = "x86_64-pc-linux-gnu"

; Function Attrs: inlinehint nounwind willreturn memory(none) uwtable
define internal i32 @av_tolower(i32 noundef %0) #1 {
  %2 = alloca i32, align 4
  store i32 %0, ptr %2, align 4, !tbaa !16
  %3 = load i32, ptr %2, align 4, !tbaa !16
  %4 = icmp sge i32 %3, 65
  br i1 %4, label %5, label %11

5:                                                ; preds = %1
  %6 = load i32, ptr %2, align 4, !tbaa !16
  %7 = icmp sle i32 %6, 90
  br i1 %7, label %8, label %11

8:                                                ; preds = %5
  %9 = load i32, ptr %2, align 4, !tbaa !16
  %10 = xor i32 %9, 32
  store i32 %10, ptr %2, align 4, !tbaa !16
  br label %11

11:                                               ; preds = %8, %5, %1
  %12 = load i32, ptr %2, align 4, !tbaa !16
  ret i32 %12
}

; Function Attrs: nounwind uwtable
define i32 @av_strcasecmp(ptr noundef %0, ptr noundef %1) #0 {
  %3 = alloca ptr, align 8
  %4 = alloca ptr, align 8
  %5 = alloca i8, align 1
  %6 = alloca i8, align 1
  store ptr %0, ptr %3, align 8, !tbaa !4
  store ptr %1, ptr %4, align 8, !tbaa !4
  call void @llvm.lifetime.start.p0(i64 1, ptr %5) #11
  call void @llvm.lifetime.start.p0(i64 1, ptr %6) #11
  br label %7

7:                                                ; preds = %30, %2
  %8 = load ptr, ptr %3, align 8, !tbaa !4
  %9 = getelementptr inbounds nuw i8, ptr %8, i32 1
  store ptr %9, ptr %3, align 8, !tbaa !4
  %10 = load i8, ptr %8, align 1, !tbaa !12
  %11 = sext i8 %10 to i32
  %12 = call i32 @av_tolower(i32 noundef %11) #10
  %13 = trunc i32 %12 to i8
  store i8 %13, ptr %5, align 1, !tbaa !12
  %14 = load ptr, ptr %4, align 8, !tbaa !4
  %15 = getelementptr inbounds nuw i8, ptr %14, i32 1
  store ptr %15, ptr %4, align 8, !tbaa !4
  %16 = load i8, ptr %14, align 1, !tbaa !12
  %17 = sext i8 %16 to i32
  %18 = call i32 @av_tolower(i32 noundef %17) #10
  %19 = trunc i32 %18 to i8
  store i8 %19, ptr %6, align 1, !tbaa !12
  br label %20

20:                                               ; preds = %7
  %21 = load i8, ptr %5, align 1, !tbaa !12
  %22 = zext i8 %21 to i32
  %23 = icmp ne i32 %22, 0
  br i1 %23, label %24, label %30

24:                                               ; preds = %20
  %25 = load i8, ptr %5, align 1, !tbaa !12
  %26 = zext i8 %25 to i32
  %27 = load i8, ptr %6, align 1, !tbaa !12
  %28 = zext i8 %27 to i32
  %29 = icmp eq i32 %26, %28
  br label %30

30:                                               ; preds = %24, %20
  %31 = phi i1 [ false, %20 ], [ %29, %24 ]
  br i1 %31, label %7, label %32, !llvm.loop !26

32:                                               ; preds = %30
  %33 = load i8, ptr %5, align 1, !tbaa !12
  %34 = zext i8 %33 to i32
  %35 = load i8, ptr %6, align 1, !tbaa !12
  %36 = zext i8 %35 to i32
  %37 = sub nsw i32 %34, %36
  call void @llvm.lifetime.end.p0(i64 1, ptr %6) #11
  call void @llvm.lifetime.end.p0(i64 1, ptr %5) #11
  ret i32 %37
}