; Function Attrs: nofree norecurse nosync nounwind memory(argmem: read) uwtable
define range(i32 -255, 256) i32 @av_strcasecmp(ptr noundef readonly captures(none) %0, ptr noundef readonly captures(none) %1) local_unnamed_addr #1 {
  br label %3

3:                                                ; preds = %3, %2
  %.06 = phi ptr [ %1, %2 ], [ %9, %3 ]
  %.0 = phi ptr [ %0, %2 ], [ %4, %3 ]
  %4 = getelementptr inbounds nuw i8, ptr %.0, i64 1
  %5 = load i8, ptr %.0, align 1, !tbaa !4
  %6 = sext i8 %5 to i32
  %7 = add nsw i32 %6, -65
  %or.cond.i = icmp ult i32 %7, 26
  %8 = or disjoint i32 %6, 32
  %spec.select.i = select i1 %or.cond.i, i32 %8, i32 %6
  %9 = getelementptr inbounds nuw i8, ptr %.06, i64 1
  %10 = load i8, ptr %.06, align 1, !tbaa !4
  %11 = sext i8 %10 to i32
  %12 = add nsw i32 %11, -65
  %or.cond.i7 = icmp ult i32 %12, 26
  %13 = or disjoint i32 %11, 32
  %spec.select.i8 = select i1 %or.cond.i7, i32 %13, i32 %11
  %14 = and i32 %spec.select.i, 255
  %15 = icmp ne i32 %14, 0
  %16 = and i32 %spec.select.i8, 255
  %17 = icmp eq i32 %14, %16
  %18 = select i1 %15, i1 %17, i1 false
  br i1 %18, label %3, label %19, !llvm.loop !19

19:                                               ; preds = %3
  %20 = sub nsw i32 %14, %16
  ret i32 %20
}